; Function Attrs: nounwind uwtable
define internal i32 @xorhmacsig_to_SubjectPublicKeyInfo_pem_encode(ptr noundef captures(none) %0, ptr noundef %1, ptr noundef %2, ptr noundef readnone captures(address_is_null) %3, i32 noundef %4, ptr noundef %5, ptr noundef %6) #0 {
  %8 = alloca ptr, align 8
  %9 = alloca i32, align 4
  %.not = icmp eq ptr %3, null
  br i1 %.not, label %11, label %10

10:                                               ; preds = %7
  tail call void @ERR_new() #16
  tail call void @ERR_set_debug(ptr noundef nonnull @.str.2, i32 noundef 2036, ptr noundef nonnull @__func__.xorhmacsig_to_SubjectPublicKeyInfo_pem_encode) #16
  tail call void (i32, i32, ptr, ...) @ERR_set_error(i32 noundef 128, i32 noundef 524550, ptr noundef null) #16
  br label %key2any_encode.exit

11:                                               ; preds = %7
  %12 = and i32 %4, 2
  %.not7 = icmp eq i32 %12, 0
  br i1 %.not7, label %35, label %13

13:                                               ; preds = %11
  %14 = tail call i32 @OBJ_sn2nid(ptr noundef nonnull @.str.1) #16
  %15 = icmp eq ptr %2, null
  %16 = icmp slt i32 %14, 1
  %or.cond.i = select i1 %15, i1 true, i1 %16
  br i1 %or.cond.i, label %17, label %18

17:                                               ; preds = %13
  tail call void @ERR_new() #16
  tail call void @ERR_set_debug(ptr noundef nonnull @.str.2, i32 noundef 1843, ptr noundef nonnull @__func__.key2any_encode) #16
  tail call void (i32, i32, ptr, ...) @ERR_set_error(i32 noundef 128, i32 noundef 786690, ptr noundef null) #16
  br label %key2any_encode.exit

18:                                               ; preds = %13
  %19 = load ptr, ptr %0, align 8, !tbaa !58
  %20 = load ptr, ptr %19, align 8, !tbaa !4
  %21 = tail call ptr @BIO_new_from_core_bio(ptr noundef %20, ptr noundef %1) #16
  %.not25.i = icmp eq ptr %21, null
  br i1 %.not25.i, label %33, label %22

22:                                               ; preds = %18
  %23 = getelementptr inbounds nuw i8, ptr %0, i64 24
  store ptr %5, ptr %23, align 8, !tbaa !67
  %24 = getelementptr inbounds nuw i8, ptr %0, i64 32
  store ptr %6, ptr %24, align 8, !tbaa !68
  call void @llvm.lifetime.start.p0(i64 8, ptr nonnull %8) #16
  store ptr null, ptr %8, align 8, !tbaa !10
  call void @llvm.lifetime.start.p0(i64 4, ptr nonnull %9) #16
  store i32 -1, ptr %9, align 4, !tbaa !11
  %25 = call i32 @prepare_xorx_params(ptr noundef nonnull %2, i32 noundef %14, i32 poison, ptr noundef nonnull %8, ptr noundef nonnull %9) #16
  %.not16.i = icmp eq i32 %25, 0
  br i1 %.not16.i, label %key_to_spki_pem_pub_bio.exit, label %._crit_edge.i

._crit_edge.i:                                    ; preds = %22
  %.pre.i = load i32, ptr %9, align 4, !tbaa !11
  %26 = tail call fastcc ptr @xorx_key_to_pubkey(ptr noundef nonnull %2, i32 noundef %14, ptr noundef nonnull @xorx_spki_pub_to_der)
  %.not17.i = icmp eq ptr %26, null
  br i1 %.not17.i, label %29, label %27

27:                                               ; preds = %._crit_edge.i
  %28 = tail call i32 @PEM_write_bio_X509_PUBKEY(ptr noundef nonnull %21, ptr noundef nonnull %26) #16
  br label %free_asn1_data.exit.i

29:                                               ; preds = %._crit_edge.i
  %30 = load ptr, ptr %8, align 8, !tbaa !10
  switch i32 %.pre.i, label %free_asn1_data.exit.i [
    i32 6, label %31
    i32 16, label %32
  ]

31:                                               ; preds = %29
  tail call void @ASN1_OBJECT_free(ptr noundef %30) #16
  br label %free_asn1_data.exit.i

32:                                               ; preds = %29
  tail call void @ASN1_STRING_free(ptr noundef %30) #16
  br label %free_asn1_data.exit.i

free_asn1_data.exit.i:                            ; preds = %32, %31, %29, %27
  %.0.i8 = phi i32 [ %28, %27 ], [ 0, %29 ], [ 0, %31 ], [ 0, %32 ]
  tail call void @X509_PUBKEY_free(ptr noundef %26) #16
  br label %key_to_spki_pem_pub_bio.exit

key_to_spki_pem_pub_bio.exit:                     ; preds = %22, %free_asn1_data.exit.i
  %.013.i = phi i32 [ %.0.i8, %free_asn1_data.exit.i ], [ 0, %22 ]
  call void @llvm.lifetime.end.p0(i64 4, ptr nonnull %9) #16
  call void @llvm.lifetime.end.p0(i64 8, ptr nonnull %8) #16
  br label %33

33:                                               ; preds = %key_to_spki_pem_pub_bio.exit, %18
  %.1.i = phi i32 [ %.013.i, %key_to_spki_pem_pub_bio.exit ], [ 0, %18 ]
  %34 = tail call i32 @BIO_free(ptr noundef %21) #16
  br label %key2any_encode.exit

35:                                               ; preds = %11
  tail call void @ERR_new() #16
  tail call void @ERR_set_debug(ptr noundef nonnull @.str.2, i32 noundef 2036, ptr noundef nonnull @__func__.xorhmacsig_to_SubjectPublicKeyInfo_pem_encode) #16
  tail call void (i32, i32, ptr, ...) @ERR_set_error(i32 noundef 128, i32 noundef 524550, ptr noundef null) #16
  br label %key2any_encode.exit

key2any_encode.exit:                              ; preds = %33, %17, %35, %10
  %.0 = phi i32 [ 0, %10 ], [ 0, %35 ], [ 0, %17 ], [ %.1.i, %33 ]
  ret i32 %.0
}